; Function Attrs: mustprogress uwtable
define noundef double @_ZN2mu9ParserInt3MaxEPKdi(ptr nocapture noundef readonly %0, i32 noundef %1) #1 align 2 personality ptr @__gxx_personality_v0 {
  %3 = alloca %"class.std::__cxx11::basic_string", align 8
  %.not = icmp eq i32 %1, 0
  br i1 %.not, label %4, label %11

4:                                                ; preds = %2
  %5 = tail call ptr @__cxa_allocate_exception(i64 112) #12
  call void @_ZNSt7__cxx1112basic_stringIcSt11char_traitsIcESaIcEEC1Ev(ptr noundef nonnull align 8 dereferenceable(32) %3) #12
  invoke void @_ZN2mu11ParserErrorC1EPKciRKNSt7__cxx1112basic_stringIcSt11char_traitsIcESaIcEEE(ptr noundef nonnull align 8 dereferenceable(112) %5, ptr noundef nonnull @.str.5, i32 noundef -1, ptr noundef nonnull align 8 dereferenceable(32) %3)
          to label %6 unwind label %9

6:                                                ; preds = %4
  invoke void @__cxa_throw(ptr nonnull %5, ptr nonnull @_ZTIN2mu11ParserErrorE, ptr nonnull @_ZN2mu11ParserErrorD1Ev) #14
          to label %19 unwind label %7

7:                                                ; preds = %6
  %8 = landingpad { ptr, i32 }
          cleanup
  call void @_ZNSt7__cxx1112basic_stringIcSt11char_traitsIcESaIcEED1Ev(ptr noundef nonnull align 8 dereferenceable(32) %3) #12
  br label %17

9:                                                ; preds = %4
  %10 = landingpad { ptr, i32 }
          cleanup
  call void @_ZNSt7__cxx1112basic_stringIcSt11char_traitsIcESaIcEED1Ev(ptr noundef nonnull align 8 dereferenceable(32) %3) #12
  call void @__cxa_free_exception(ptr %5) #12
  br label %17

11:                                               ; preds = %2
  %12 = load double, ptr %0, align 8
  %13 = icmp sgt i32 %1, 0
  br i1 %13, label %.lr.ph.preheader, label %._crit_edge

.lr.ph.preheader:                                 ; preds = %11
  %wide.trip.count = zext nneg i32 %1 to i64
  br label %.lr.ph

.lr.ph:                                           ; preds = %.lr.ph.preheader, %.lr.ph
  %indvars.iv = phi i64 [ 0, %.lr.ph.preheader ], [ %indvars.iv.next, %.lr.ph ]
  %.01214 = phi double [ %12, %.lr.ph.preheader ], [ %.sroa.speculated, %.lr.ph ]
  %14 = getelementptr inbounds double, ptr %0, i64 %indvars.iv
  %15 = load double, ptr %14, align 8
  %16 = fcmp olt double %.01214, %15
  %.sroa.speculated = select i1 %16, double %15, double %.01214
  %indvars.iv.next = add nuw nsw i64 %indvars.iv, 1
  %exitcond.not = icmp eq i64 %indvars.iv.next, %wide.trip.count
  br i1 %exitcond.not, label %._crit_edge, label %.lr.ph, !llvm.loop !8

._crit_edge:                                      ; preds = %.lr.ph, %11
  %.012.lcssa = phi double [ %12, %11 ], [ %.sroa.speculated, %.lr.ph ]
  ret double %.012.lcssa

17:                                               ; preds = %7, %9
  %18 = phi { ptr, i32 } [ %8, %7 ], [ %10, %9 ]
  resume { ptr, i32 } %18

19:                                               ; preds = %6
  unreachable
}